; Function Attrs: nounwind uwtable
define void @Aig_TsiStop(ptr noundef captures(none) %0) local_unnamed_addr #0 {
  %2 = getelementptr inbounds nuw i8, ptr %0, i64 24
  %3 = load ptr, ptr %2, align 8, !tbaa !30
  tail call void @Aig_MmFixedStop(ptr noundef %3, i32 noundef 0) #17
  %4 = getelementptr inbounds nuw i8, ptr %0, i64 16
  %5 = load ptr, ptr %4, align 8, !tbaa !29
  %6 = getelementptr inbounds nuw i8, ptr %5, i64 8
  %7 = load ptr, ptr %6, align 8, !tbaa !28
  %.not.i = icmp eq ptr %7, null
  br i1 %.not.i, label %Vec_PtrFree.exit, label %8

8:                                                ; preds = %1
  tail call void @free(ptr noundef nonnull %7) #17
  br label %Vec_PtrFree.exit

Vec_PtrFree.exit:                                 ; preds = %1, %8
  tail call void @free(ptr noundef nonnull %5) #17
  %9 = getelementptr inbounds nuw i8, ptr %0, i64 32
  %10 = load ptr, ptr %9, align 8, !tbaa !35
  %.not = icmp eq ptr %10, null
  br i1 %.not, label %12, label %11

11:                                               ; preds = %Vec_PtrFree.exit
  tail call void @free(ptr noundef nonnull %10) #17
  br label %12

12:                                               ; preds = %Vec_PtrFree.exit, %11
  tail call void @free(ptr noundef nonnull %0) #17
  ret void
}